; Function Attrs: mustprogress nounwind uwtable
define hidden void @_ZN18G1ConcurrentRefine30get_and_reset_refinement_statsEv(ptr dead_on_unwind noalias nocapture writable writeonly sret(%class.G1ConcurrentRefineStats) align 8 %0, ptr nocapture noundef nonnull readonly align 8 dereferenceable(136) %1) local_unnamed_addr #0 align 2 {
  %3 = alloca %struct.CollectStats, align 8
  store ptr getelementptr inbounds inrange(-16, 8) (i8, ptr @_ZTVZN18G1ConcurrentRefine30get_and_reset_refinement_statsEvE12CollectStats, i64 16), ptr %3, align 8
  %4 = getelementptr inbounds i8, ptr %3, i64 8
  call void @_ZN23G1ConcurrentRefineStatsC1Ev(ptr noundef nonnull align 8 dereferenceable(40) %4) #17
  %5 = getelementptr inbounds i8, ptr %1, i64 112
  %6 = load i32, ptr %5, align 8
  %.not10.i.i = icmp eq i32 %6, 0
  br i1 %.not10.i.i, label %_ZN18G1ConcurrentRefine10threads_doEP13ThreadClosure.exit, label %.lr.ph.i.i

.lr.ph.i.i:                                       ; preds = %2
  %7 = getelementptr inbounds i8, ptr %1, i64 120
  %8 = zext i32 %6 to i64
  br label %9

9:                                                ; preds = %9, %.lr.ph.i.i
  %indvars.iv.i.i = phi i64 [ 0, %.lr.ph.i.i ], [ %indvars.iv.next.i.i, %9 ]
  %10 = load ptr, ptr %7, align 8
  %11 = getelementptr inbounds ptr, ptr %10, i64 %indvars.iv.i.i
  %12 = load ptr, ptr %11, align 8
  %13 = load ptr, ptr %3, align 8
  %14 = load ptr, ptr %13, align 8
  call void %14(ptr noundef nonnull align 8 dereferenceable(8) %3, ptr noundef %12) #17
  %indvars.iv.next.i.i = add nuw nsw i64 %indvars.iv.i.i, 1
  %.not.i.i = icmp eq i64 %indvars.iv.next.i.i, %8
  br i1 %.not.i.i, label %_ZN18G1ConcurrentRefine10threads_doEP13ThreadClosure.exit, label %9

_ZN18G1ConcurrentRefine10threads_doEP13ThreadClosure.exit: ; preds = %9, %2
  call void @llvm.memcpy.p0.p0.i64(ptr noundef nonnull align 8 dereferenceable(40) %0, ptr noundef nonnull align 8 dereferenceable(40) %4, i64 40, i1 false)
  ret void
}